Certificate:
    Data:
        Version: 3 (0x2)
        Serial Number:
            2f:2e:92:d1:4a:23:b9:da:59:f6:6e:1b:16:0a:fb:8c:e1:17:21:39
        Signature Algorithm: sha1WithRSAEncryption
        Issuer: C=AU, O=Dodgy Brothers, CN=Dodgy CA
        Validity
            Not Before: Oct 10 22:57:34 2022 GMT
            Not After : Oct 10 22:57:34 2023 GMT
        Subject: C=AU, O=Dodgy Brothers, CN=Brother 1, CN=lastupdate_invalid
        Subject Public Key Info:
            Public Key Algorithm: rsaEncryption
                Public-Key: (2048 bit)
                Modulus:
                    00:be:95:86:fa:71:4c:6a:ea:51:98:50:4b:99:a1:
                    2c:66:15:f3:60:f3:e1:ff:69:fb:ce:48:01:1d:fe:
                    e1:2c:38:b0:e3:bd:8f:4b:48:a7:7e:3a:c6:73:e3:
                    ab:bf:e1:da:6e:96:f5:fe:c3:e4:b4:a8:ad:bc:56:
                    34:d4:96:25:74:27:c3:10:db:35:10:25:1c:8e:4b:
                    81:9b:fb:42:04:7c:6f:3d:e2:38:6c:0e:e4:2e:8e:
                    2a:18:6d:30:cd:67:2a:23:6b:37:cf:05:9f:cc:b7:
                    59:58:7f:ba:c4:0a:3f:8c:a4:ad:cb:98:9c:c0:f2:
                    8f:69:67:0f:c1:4e:33:cf:fc:85:5e:bb:5e:cf:93:
                    b0:cf:d9:f4:52:79:87:b1:f8:4d:15:68:65:d5:b7:
                    19:08:63:7f:5e:b1:34:ad:05:8f:5a:f0:e4:e1:8f:
                    25:f2:5c:5c:61:95:b0:56:2d:31:2b:08:65:79:e5:
                    b1:3b:9d:3e:b9:52:4b:ac:5d:c4:58:66:85:8d:81:
                    b3:04:28:f4:3f:2f:ac:92:01:62:d5:fd:8e:0b:da:
                    02:0c:7a:c7:6e:09:1c:ac:1c:b2:4c:d7:54:b8:26:
                    33:b2:5f:14:f3:b1:f9:3d:62:4d:40:99:6b:b6:e7:
                    89:58:97:d6:d4:4d:ea:4b:68:52:f3:3c:a8:b1:35:
                    88:db
                Exponent: 65537 (0x10001)
        X509v3 extensions:
            X509v3 Subject Key Identifier: 
                A1:DF:33:C3:CF:3E:53:41:A7:68:44:CC:AA:19:E1:84:C9:0D:BC:C6
            X509v3 Authority Key Identifier: 
                keyid:B4:11:33:F1:D7:E2:5E:F7:53:9E:20:22:10:4F:86:06:BF:1F:C9:5E
                DirName:/C=AU/O=Dodgy Brothers/CN=Dodgy CA
                serial:54:58:39:15:FE:DC:8B:D1:43:3E:FE:0D:20:57:05:68:CF:78:BB:5C
            X509v3 Basic Constraints: critical
                CA:TRUE, pathlen:1
            X509v3 Key Usage: 
                Certificate Sign, CRL Sign
            X509v3 Issuer Alternative Name: 
                <EMPTY>

    Signature Algorithm: sha1WithRSAEncryption
    Signature Value:
        0e:01:cd:c0:0d:6b:d1:1a:9c:1a:f9:ba:bc:6f:1e:d7:cc:e5:
        31:10:0f:38:c4:bb:11:db:0b:96:53:3d:f7:d9:cb:fa:11:2a:
        63:5b:00:ec:5c:e4:66:b2:c8:15:ec:e4:a3:aa:07:77:3f:bd:
        13:6f:5e:11:34:8d:9a:4b:e0:9c:b6:45:d7:43:87:49:81:4e:
        8a:3f:08:07:47:ff:bd:7a:ad:5e:b1:01:9c:77:3e:23:86:76:
        98:bc:fe:0b:84:84:e5:1c:a9:be:47:ac:c4:6f:56:e1:74:0c:
        27:dc:69:bb:10:c4:d3:95:0d:62:59:29:15:d5:7c:d0:9d:e8:
        56:7d:2f:a9:ec:c2:c1:f0:5d:bf:d9:d3:12:45:dc:65:d0:48:
        05:91:e9:1f:d9:cd:69:a5:01:ca:e6:d7:7e:1b:c3:81:7e:1c:
        d2:e1:c8:10:95:d0:13:f3:c7:c5:3b:27:e3:6e:06:56:97:be:
        dd:17:a7:9e:d3:dc:de:f0:72:5a:69:56:63:90:9d:e0:f4:e7:
        f5:83:46:06:29:81:6e:6a:a6:44:b0:24:64:66:e9:b2:10:2d:
        ba:b4:a2:c2:ca:60:cf:50:62:8e:0e:c2:e1:a1:fc:f8:f6:10:
        cf:d0:95:2f:3a:da:f1:d4:05:84:c9:27:b7:dc:d6:2f:79:d9:
        c6:92:b7:a6
-----BEGIN CERTIFICATE-----
MIID4zCCAsugAwIBAgIULy6S0UojudpZ9m4bFgr7jOEXITkwDQYJKoZIhvcNAQEF
BQAwOTELMAkGA1UEBhMCQVUxFzAVBgNVBAoMDkRvZGd5IEJyb3RoZXJzMREwDwYD
VQQDDAhEb2RneSBDQTAeFw0yMjEwMTAyMjU3MzRaFw0yMzEwMTAyMjU3MzRaMFcx
CzAJBgNVBAYTAkFVMRcwFQYDVQQKDA5Eb2RneSBCcm90aGVyczESMBAGA1UEAwwJ
QnJvdGhlciAxMRswGQYDVQQDDBJsYXN0dXBkYXRlX2ludmFsaWQwggEiMA0GCSqG
SIb3DQEBAQUAA4IBDwAwggEKAoIBAQC+lYb6cUxq6lGYUEuZoSxmFfNg8+H/afvO
SAEd/uEsOLDjvY9LSKd+OsZz46u/4dpulvX+w+S0qK28VjTUliV0J8MQ2zUQJRyO
S4Gb+0IEfG894jhsDuQujioYbTDNZyojazfPBZ/Mt1lYf7rECj+MpK3LmJzA8o9p
Zw/BTjPP/IVeu17Pk7DP2fRSeYex+E0VaGXVtxkIY39esTStBY9a8OThjyXyXFxh
lbBWLTErCGV55bE7nT65UkusXcRYZoWNgbMEKPQ/L6ySAWLV/Y4L2gIMesduCRys
HLJM11S4JjOyXxTzsfk9Yk1AmWu254lYl9bUTepLaFLzPKixNYjbAgMBAAGjgcQw
gcEwHQYDVR0OBBYEFKHfM8PPPlNBp2hEzKoZ4YTJDbzGMHQGA1UdIwRtMGuAFLQR
M/HX4l73U54gIhBPhga/H8leoT2kOzA5MQswCQYDVQQGEwJBVTEXMBUGA1UECgwO
RG9kZ3kgQnJvdGhlcnMxETAPBgNVBAMMCERvZGd5IENBghRUWDkV/tyL0UM+/g0g
VwVoz3i7XDASBgNVHRMBAf8ECDAGAQH/AgEBMAsGA1UdDwQEAwIBBjAJBgNVHRIE
AjAAMA0GCSqGSIb3DQEBBQUAA4IBAQAOAc3ADWvRGpwa+bq8bx7XzOUxEA84xLsR
2wuWUz332cv6ESpjWwDsXORmssgV7OSjqgd3P70Tb14RNI2aS+CctkXXQ4dJgU6K
PwgHR/+9eq1esQGcdz4jhnaYvP4LhITlHKm+R6zEb1bhdAwn3Gm7EMTTlQ1iWSkV
1XzQnehWfS+p7MLB8F2/2dMSRdxl0EgFkekf2c1ppQHK5td+G8OBfhzS4cgQldAT
88fFOyfjbgZWl77dF6ee09ze8HJaaVZjkJ3g9Of1g0YGKYFuaqZEsCRkZumyEC26
tKLCymDPUGKODsLhofz49hDP0JUvOtrx1AWEySe33NYvednGkrem
-----END CERTIFICATE-----
