Certificate:
    Data:
        Version: 3 (0x2)
        Serial Number:
            2f:2e:92:d1:4a:23:b9:da:59:f6:6e:1b:16:0a:fb:8c:e1:17:21:38
        Signature Algorithm: sha1WithRSAEncryption
        Issuer: C=AU, O=Dodgy Brothers, CN=Dodgy CA
        Validity
            Not Before: Oct 10 22:57:33 2022 GMT
            Not After : Oct 10 22:57:33 2023 GMT
        Subject: C=AU, O=Dodgy Brothers, CN=Brother 1, CN=notimes
        Subject Public Key Info:
            Public Key Algorithm: rsaEncryption
                Public-Key: (2048 bit)
                Modulus:
                    00:be:95:86:fa:71:4c:6a:ea:51:98:50:4b:99:a1:
                    2c:66:15:f3:60:f3:e1:ff:69:fb:ce:48:01:1d:fe:
                    e1:2c:38:b0:e3:bd:8f:4b:48:a7:7e:3a:c6:73:e3:
                    ab:bf:e1:da:6e:96:f5:fe:c3:e4:b4:a8:ad:bc:56:
                    34:d4:96:25:74:27:c3:10:db:35:10:25:1c:8e:4b:
                    81:9b:fb:42:04:7c:6f:3d:e2:38:6c:0e:e4:2e:8e:
                    2a:18:6d:30:cd:67:2a:23:6b:37:cf:05:9f:cc:b7:
                    59:58:7f:ba:c4:0a:3f:8c:a4:ad:cb:98:9c:c0:f2:
                    8f:69:67:0f:c1:4e:33:cf:fc:85:5e:bb:5e:cf:93:
                    b0:cf:d9:f4:52:79:87:b1:f8:4d:15:68:65:d5:b7:
                    19:08:63:7f:5e:b1:34:ad:05:8f:5a:f0:e4:e1:8f:
                    25:f2:5c:5c:61:95:b0:56:2d:31:2b:08:65:79:e5:
                    b1:3b:9d:3e:b9:52:4b:ac:5d:c4:58:66:85:8d:81:
                    b3:04:28:f4:3f:2f:ac:92:01:62:d5:fd:8e:0b:da:
                    02:0c:7a:c7:6e:09:1c:ac:1c:b2:4c:d7:54:b8:26:
                    33:b2:5f:14:f3:b1:f9:3d:62:4d:40:99:6b:b6:e7:
                    89:58:97:d6:d4:4d:ea:4b:68:52:f3:3c:a8:b1:35:
                    88:db
                Exponent: 65537 (0x10001)
        X509v3 extensions:
            X509v3 Subject Key Identifier: 
                A1:DF:33:C3:CF:3E:53:41:A7:68:44:CC:AA:19:E1:84:C9:0D:BC:C6
            X509v3 Authority Key Identifier: 
                keyid:B4:11:33:F1:D7:E2:5E:F7:53:9E:20:22:10:4F:86:06:BF:1F:C9:5E
                DirName:/C=AU/O=Dodgy Brothers/CN=Dodgy CA
                serial:54:58:39:15:FE:DC:8B:D1:43:3E:FE:0D:20:57:05:68:CF:78:BB:5C
            X509v3 Basic Constraints: critical
                CA:TRUE, pathlen:1
            X509v3 Key Usage: 
                Certificate Sign, CRL Sign
            X509v3 Issuer Alternative Name: 
                <EMPTY>

    Signature Algorithm: sha1WithRSAEncryption
    Signature Value:
        68:59:1d:09:58:59:77:49:27:83:2e:33:1d:e3:65:d1:8a:46:
        7e:39:92:87:8d:cf:e8:92:4f:ec:77:5f:57:16:1b:56:0b:fc:
        58:56:a8:5d:18:e0:65:5e:10:9b:07:d6:48:a3:43:c2:0c:28:
        96:77:a5:29:88:21:e8:ce:09:f1:69:bc:f4:68:1f:95:6a:c5:
        57:36:34:24:0a:19:86:51:d4:4f:cf:32:12:4a:bc:a1:19:5f:
        e1:47:ac:bc:77:5c:3e:42:ee:e5:3f:b9:2c:49:b0:f5:30:99:
        6d:c3:a7:1b:2e:58:2b:94:3f:c0:b1:08:ba:ae:ec:53:98:61:
        a5:43:fb:27:3f:f7:d5:e2:c5:74:f4:17:1c:5c:9c:1b:5e:9c:
        30:b3:a9:c5:46:1f:af:b2:72:38:ac:1d:4c:87:0e:c8:6b:92:
        e9:0e:3e:ed:f8:f0:11:5b:c5:b3:de:50:58:fd:b2:ef:cb:3d:
        b6:27:37:c3:69:26:65:a1:54:86:cd:a5:34:62:9c:20:27:05:
        44:cf:b0:d4:42:ad:79:77:62:c4:40:21:e9:4d:f9:34:cc:ca:
        e7:a5:3f:cb:c7:2f:be:f7:8f:90:0f:5a:03:d9:34:31:61:6a:
        4d:e7:10:f0:ce:aa:82:e6:b3:a9:26:88:c8:44:b5:5a:9a:24:
        fc:db:b9:51
-----BEGIN CERTIFICATE-----
MIID2DCCAsCgAwIBAgIULy6S0UojudpZ9m4bFgr7jOEXITgwDQYJKoZIhvcNAQEF
BQAwOTELMAkGA1UEBhMCQVUxFzAVBgNVBAoMDkRvZGd5IEJyb3RoZXJzMREwDwYD
VQQDDAhEb2RneSBDQTAeFw0yMjEwMTAyMjU3MzNaFw0yMzEwMTAyMjU3MzNaMEwx
CzAJBgNVBAYTAkFVMRcwFQYDVQQKDA5Eb2RneSBCcm90aGVyczESMBAGA1UEAwwJ
QnJvdGhlciAxMRAwDgYDVQQDDAdub3RpbWVzMIIBIjANBgkqhkiG9w0BAQEFAAOC
AQ8AMIIBCgKCAQEAvpWG+nFMaupRmFBLmaEsZhXzYPPh/2n7zkgBHf7hLDiw472P
S0infjrGc+Orv+Habpb1/sPktKitvFY01JYldCfDENs1ECUcjkuBm/tCBHxvPeI4
bA7kLo4qGG0wzWcqI2s3zwWfzLdZWH+6xAo/jKSty5icwPKPaWcPwU4zz/yFXrte
z5Owz9n0UnmHsfhNFWhl1bcZCGN/XrE0rQWPWvDk4Y8l8lxcYZWwVi0xKwhleeWx
O50+uVJLrF3EWGaFjYGzBCj0Py+skgFi1f2OC9oCDHrHbgkcrByyTNdUuCYzsl8U
87H5PWJNQJlrtueJWJfW1E3qS2hS8zyosTWI2wIDAQABo4HEMIHBMB0GA1UdDgQW
BBSh3zPDzz5TQadoRMyqGeGEyQ28xjB0BgNVHSMEbTBrgBS0ETPx1+Je91OeICIQ
T4YGvx/JXqE9pDswOTELMAkGA1UEBhMCQVUxFzAVBgNVBAoMDkRvZGd5IEJyb3Ro
ZXJzMREwDwYDVQQDDAhEb2RneSBDQYIUVFg5Ff7ci9FDPv4NIFcFaM94u1wwEgYD
VR0TAQH/BAgwBgEB/wIBATALBgNVHQ8EBAMCAQYwCQYDVR0SBAIwADANBgkqhkiG
9w0BAQUFAAOCAQEAaFkdCVhZd0kngy4zHeNl0YpGfjmSh43P6JJP7HdfVxYbVgv8
WFaoXRjgZV4QmwfWSKNDwgwolnelKYgh6M4J8Wm89GgflWrFVzY0JAoZhlHUT88y
Ekq8oRlf4UesvHdcPkLu5T+5LEmw9TCZbcOnGy5YK5Q/wLEIuq7sU5hhpUP7Jz/3
1eLFdPQXHFycG16cMLOpxUYfr7JyOKwdTIcOyGuS6Q4+7fjwEVvFs95QWP2y78s9
tic3w2kmZaFUhs2lNGKcICcFRM+w1EKteXdixEAh6U35NMzK56U/y8cvvvePkA9a
A9k0MWFqTecQ8M6qguazqSaIyES1Wpok/Nu5UQ==
-----END CERTIFICATE-----
