Certificate:
    Data:
        Version: 3 (0x2)
        Serial Number:
            2f:2e:92:d1:4a:23:b9:da:59:f6:6e:1b:16:0a:fb:8c:e1:17:21:36
        Signature Algorithm: sha256WithRSAEncryption
        Issuer: C=AU, O=Dodgy Brothers, CN=Dodgy CA
        Validity
            Not Before: Oct 10 22:57:33 2022 GMT
            Not After : Oct 10 22:57:33 2023 GMT
        Subject: C=AU, O=Dodgy Brothers, CN=Brother 1, CN=Brother 2
        Subject Public Key Info:
            Public Key Algorithm: rsaEncryption
                Public-Key: (2048 bit)
                Modulus:
                    00:a8:ff:89:58:61:85:ae:de:db:2c:0f:d5:73:fb:
                    e2:b7:a8:1b:7a:75:60:2b:d4:7d:3c:73:76:b5:ae:
                    de:93:2f:7f:24:90:6d:c9:1c:f4:8a:38:cd:9f:a2:
                    80:16:56:cb:b4:2c:bb:93:e5:17:1f:ff:0d:c6:43:
                    fe:31:34:f8:28:d8:75:e9:a3:bb:88:82:ef:a3:72:
                    e2:53:62:05:45:4d:e0:31:97:ef:aa:9d:10:d2:58:
                    0d:9e:06:9e:32:bb:1b:08:56:5d:65:0f:3f:66:8e:
                    c2:36:a0:11:ff:c0:59:35:fd:49:1c:dd:1c:42:33:
                    06:78:ae:04:38:23:e5:e7:75:67:d3:94:ad:5a:a9:
                    40:1f:ac:59:10:f5:0c:c1:64:ad:4a:c4:c6:35:53:
                    b3:96:6a:82:1b:15:8b:d1:99:ab:e4:9e:6f:94:aa:
                    d2:96:e5:57:fb:8c:91:64:8a:3c:24:16:c6:d2:19:
                    be:82:60:13:3b:62:b0:ed:3e:1d:b3:ca:f9:6b:df:
                    31:b9:7a:9e:4b:47:68:a7:29:c7:3f:4a:e2:22:27:
                    b4:ef:90:63:d7:ef:d0:72:49:3e:5b:ad:b9:1b:d4:
                    2b:6f:86:68:dd:d5:73:12:b8:43:c9:dc:41:0f:a2:
                    a3:46:4f:8b:67:88:84:0f:61:fe:79:34:1f:4a:89:
                    1f:b7
                Exponent: 65537 (0x10001)
        X509v3 extensions:
            X509v3 Basic Constraints: 
                CA:FALSE
            X509v3 Subject Key Identifier: 
                E7:9B:E2:2A:AD:8A:6C:3A:CB:76:51:E5:8E:07:98:22:97:E1:73:A2
            X509v3 Authority Key Identifier: 
                B4:11:33:F1:D7:E2:5E:F7:53:9E:20:22:10:4F:86:06:BF:1F:C9:5E
    Signature Algorithm: sha256WithRSAEncryption
    Signature Value:
        20:78:be:62:ba:97:6a:02:fa:6e:04:c8:36:27:09:de:eb:64:
        0e:02:2a:4a:87:90:60:89:83:72:7e:d4:23:0b:c9:05:e7:81:
        3e:84:66:35:c0:99:33:19:19:0b:4b:d6:35:a7:a8:20:fe:3b:
        98:a5:61:99:cb:ee:77:0c:33:34:10:a2:03:71:d0:dd:8c:37:
        c1:9e:8e:34:bd:45:36:ba:07:a5:9e:cd:e5:29:be:74:d1:01:
        58:b4:90:08:22:ac:80:5c:68:f4:f0:4a:a9:33:78:f1:23:04:
        54:e6:18:06:d5:ee:96:26:b6:49:d2:73:16:cd:0a:37:ff:a0:
        4c:a2:0c:3b:43:04:8c:49:0d:c9:9b:45:80:2c:f0:3a:b1:80:
        e2:49:9e:d9:51:f2:61:1e:d6:a0:96:ca:26:48:25:c6:a9:b3:
        e2:d6:ca:5a:66:08:de:38:f1:50:92:2d:47:3d:23:39:cb:33:
        c6:13:62:ed:36:f6:95:33:d2:09:2f:e0:31:03:20:0b:15:16:
        cd:1c:7b:0b:c7:7d:ca:ef:50:56:ea:47:d2:a6:ad:51:e4:c9:
        8c:59:59:46:31:f0:6d:96:85:47:2f:65:fa:02:ed:d2:c7:57:
        bf:77:6b:44:9a:1d:fc:3c:03:8b:da:50:8b:6a:94:dc:e5:5e:
        95:c2:35:cf
-----BEGIN CERTIFICATE-----
MIIDYjCCAkqgAwIBAgIULy6S0UojudpZ9m4bFgr7jOEXITYwDQYJKoZIhvcNAQEL
BQAwOTELMAkGA1UEBhMCQVUxFzAVBgNVBAoMDkRvZGd5IEJyb3RoZXJzMREwDwYD
VQQDDAhEb2RneSBDQTAeFw0yMjEwMTAyMjU3MzNaFw0yMzEwMTAyMjU3MzNaME4x
CzAJBgNVBAYTAkFVMRcwFQYDVQQKDA5Eb2RneSBCcm90aGVyczESMBAGA1UEAwwJ
QnJvdGhlciAxMRIwEAYDVQQDDAlCcm90aGVyIDIwggEiMA0GCSqGSIb3DQEBAQUA
A4IBDwAwggEKAoIBAQCo/4lYYYWu3tssD9Vz++K3qBt6dWAr1H08c3a1rt6TL38k
kG3JHPSKOM2fooAWVsu0LLuT5Rcf/w3GQ/4xNPgo2HXpo7uIgu+jcuJTYgVFTeAx
l++qnRDSWA2eBp4yuxsIVl1lDz9mjsI2oBH/wFk1/Ukc3RxCMwZ4rgQ4I+XndWfT
lK1aqUAfrFkQ9QzBZK1KxMY1U7OWaoIbFYvRmavknm+UqtKW5Vf7jJFkijwkFsbS
Gb6CYBM7YrDtPh2zyvlr3zG5ep5LR2inKcc/SuIiJ7TvkGPX79ByST5brbkb1Ctv
hmjd1XMSuEPJ3EEPoqNGT4tniIQPYf55NB9KiR+3AgMBAAGjTTBLMAkGA1UdEwQC
MAAwHQYDVR0OBBYEFOeb4iqtimw6y3ZR5Y4HmCKX4XOiMB8GA1UdIwQYMBaAFLQR
M/HX4l73U54gIhBPhga/H8leMA0GCSqGSIb3DQEBCwUAA4IBAQAgeL5iupdqAvpu
BMg2Jwne62QOAipKh5BgiYNyftQjC8kF54E+hGY1wJkzGRkLS9Y1p6gg/juYpWGZ
y+53DDM0EKIDcdDdjDfBno40vUU2ugelns3lKb500QFYtJAIIqyAXGj08EqpM3jx
IwRU5hgG1e6WJrZJ0nMWzQo3/6BMogw7QwSMSQ3Jm0WALPA6sYDiSZ7ZUfJhHtag
lsomSCXGqbPi1spaZgjeOPFQki1HPSM5yzPGE2LtNvaVM9IJL+AxAyALFRbNHHsL
x33K71BW6kfSpq1R5MmMWVlGMfBtloVHL2X6Au3Sx1e/d2tEmh38PAOL2lCLapTc
5V6VwjXP
-----END CERTIFICATE-----
