Certificate:
    Data:
        Version: 3 (0x2)
        Serial Number:
            2f:2e:92:d1:4a:23:b9:da:59:f6:6e:1b:16:0a:fb:8c:e1:17:21:3f
        Signature Algorithm: sha1WithRSAEncryption
        Issuer: C=AU, O=Dodgy Brothers, CN=Dodgy CA
        Validity
            Not Before: Oct 10 22:57:34 2022 GMT
            Not After : Oct 10 22:57:34 2023 GMT
        Subject: C=AU, O=Dodgy Brothers, CN=Brother 1, CN=both_utctime
        Subject Public Key Info:
            Public Key Algorithm: rsaEncryption
                Public-Key: (2048 bit)
                Modulus:
                    00:be:95:86:fa:71:4c:6a:ea:51:98:50:4b:99:a1:
                    2c:66:15:f3:60:f3:e1:ff:69:fb:ce:48:01:1d:fe:
                    e1:2c:38:b0:e3:bd:8f:4b:48:a7:7e:3a:c6:73:e3:
                    ab:bf:e1:da:6e:96:f5:fe:c3:e4:b4:a8:ad:bc:56:
                    34:d4:96:25:74:27:c3:10:db:35:10:25:1c:8e:4b:
                    81:9b:fb:42:04:7c:6f:3d:e2:38:6c:0e:e4:2e:8e:
                    2a:18:6d:30:cd:67:2a:23:6b:37:cf:05:9f:cc:b7:
                    59:58:7f:ba:c4:0a:3f:8c:a4:ad:cb:98:9c:c0:f2:
                    8f:69:67:0f:c1:4e:33:cf:fc:85:5e:bb:5e:cf:93:
                    b0:cf:d9:f4:52:79:87:b1:f8:4d:15:68:65:d5:b7:
                    19:08:63:7f:5e:b1:34:ad:05:8f:5a:f0:e4:e1:8f:
                    25:f2:5c:5c:61:95:b0:56:2d:31:2b:08:65:79:e5:
                    b1:3b:9d:3e:b9:52:4b:ac:5d:c4:58:66:85:8d:81:
                    b3:04:28:f4:3f:2f:ac:92:01:62:d5:fd:8e:0b:da:
                    02:0c:7a:c7:6e:09:1c:ac:1c:b2:4c:d7:54:b8:26:
                    33:b2:5f:14:f3:b1:f9:3d:62:4d:40:99:6b:b6:e7:
                    89:58:97:d6:d4:4d:ea:4b:68:52:f3:3c:a8:b1:35:
                    88:db
                Exponent: 65537 (0x10001)
        X509v3 extensions:
            X509v3 Subject Key Identifier: 
                A1:DF:33:C3:CF:3E:53:41:A7:68:44:CC:AA:19:E1:84:C9:0D:BC:C6
            X509v3 Authority Key Identifier: 
                keyid:B4:11:33:F1:D7:E2:5E:F7:53:9E:20:22:10:4F:86:06:BF:1F:C9:5E
                DirName:/C=AU/O=Dodgy Brothers/CN=Dodgy CA
                serial:54:58:39:15:FE:DC:8B:D1:43:3E:FE:0D:20:57:05:68:CF:78:BB:5C
            X509v3 Basic Constraints: critical
                CA:TRUE, pathlen:1
            X509v3 Key Usage: 
                Certificate Sign, CRL Sign
            X509v3 Issuer Alternative Name: 
                <EMPTY>

    Signature Algorithm: sha1WithRSAEncryption
    Signature Value:
        85:97:ec:c5:d7:52:b5:cf:99:d2:ed:79:c2:41:9f:94:74:ae:
        20:26:f3:6a:b6:d3:33:0f:54:a5:d3:bc:54:37:02:0a:e4:3a:
        c7:a0:91:44:7e:70:f0:7b:af:d6:0a:22:e8:b2:c5:d8:96:62:
        66:f3:aa:a8:f5:a9:4c:cb:00:ac:c7:65:6a:ff:d7:de:23:e6:
        b1:8d:97:ed:cc:d1:b8:d8:f0:1a:b1:22:b5:61:3c:67:6d:e3:
        e2:fa:2d:93:69:35:56:3f:29:32:9a:cc:ac:6b:7c:3f:f8:5d:
        cc:39:d7:32:65:8d:c6:03:df:65:8c:b1:78:1b:c9:44:76:74:
        5c:a5:32:e1:36:2b:8f:11:31:2c:ca:98:a6:4e:0b:2c:49:4b:
        84:95:8c:2f:53:2b:d4:b1:3c:6d:49:67:08:38:02:c4:19:9e:
        c7:c8:43:3b:4f:60:1d:f7:f6:b9:c8:08:b1:b7:4d:eb:b7:0c:
        7f:19:c4:0e:91:db:4e:b4:57:d4:96:cb:a4:5d:8b:97:22:e2:
        6c:25:03:aa:20:aa:20:d8:a1:ae:b0:ac:7a:90:c1:40:da:77:
        26:7a:48:fb:45:1e:ff:ca:15:1d:dd:0a:70:85:98:34:71:99:
        41:98:f5:b6:31:38:d1:28:00:bd:4d:5f:01:22:25:6d:9c:ac:
        88:ae:11:63
-----BEGIN CERTIFICATE-----
MIID3TCCAsWgAwIBAgIULy6S0UojudpZ9m4bFgr7jOEXIT8wDQYJKoZIhvcNAQEF
BQAwOTELMAkGA1UEBhMCQVUxFzAVBgNVBAoMDkRvZGd5IEJyb3RoZXJzMREwDwYD
VQQDDAhEb2RneSBDQTAeFw0yMjEwMTAyMjU3MzRaFw0yMzEwMTAyMjU3MzRaMFEx
CzAJBgNVBAYTAkFVMRcwFQYDVQQKDA5Eb2RneSBCcm90aGVyczESMBAGA1UEAwwJ
QnJvdGhlciAxMRUwEwYDVQQDDAxib3RoX3V0Y3RpbWUwggEiMA0GCSqGSIb3DQEB
AQUAA4IBDwAwggEKAoIBAQC+lYb6cUxq6lGYUEuZoSxmFfNg8+H/afvOSAEd/uEs
OLDjvY9LSKd+OsZz46u/4dpulvX+w+S0qK28VjTUliV0J8MQ2zUQJRyOS4Gb+0IE
fG894jhsDuQujioYbTDNZyojazfPBZ/Mt1lYf7rECj+MpK3LmJzA8o9pZw/BTjPP
/IVeu17Pk7DP2fRSeYex+E0VaGXVtxkIY39esTStBY9a8OThjyXyXFxhlbBWLTEr
CGV55bE7nT65UkusXcRYZoWNgbMEKPQ/L6ySAWLV/Y4L2gIMesduCRysHLJM11S4
JjOyXxTzsfk9Yk1AmWu254lYl9bUTepLaFLzPKixNYjbAgMBAAGjgcQwgcEwHQYD
VR0OBBYEFKHfM8PPPlNBp2hEzKoZ4YTJDbzGMHQGA1UdIwRtMGuAFLQRM/HX4l73
U54gIhBPhga/H8leoT2kOzA5MQswCQYDVQQGEwJBVTEXMBUGA1UECgwORG9kZ3kg
QnJvdGhlcnMxETAPBgNVBAMMCERvZGd5IENBghRUWDkV/tyL0UM+/g0gVwVoz3i7
XDASBgNVHRMBAf8ECDAGAQH/AgEBMAsGA1UdDwQEAwIBBjAJBgNVHRIEAjAAMA0G
CSqGSIb3DQEBBQUAA4IBAQCFl+zF11K1z5nS7XnCQZ+UdK4gJvNqttMzD1Sl07xU
NwIK5DrHoJFEfnDwe6/WCiLossXYlmJm86qo9alMywCsx2Vq/9feI+axjZftzNG4
2PAasSK1YTxnbePi+i2TaTVWPykymsysa3w/+F3MOdcyZY3GA99ljLF4G8lEdnRc
pTLhNiuPETEsypimTgssSUuElYwvUyvUsTxtSWcIOALEGZ7HyEM7T2Ad9/a5yAix
t03rtwx/GcQOkdtOtFfUlsukXYuXIuJsJQOqIKog2KGusKx6kMFA2ncmekj7RR7/
yhUd3QpwhZg0cZlBmPW2MTjRKAC9TV8BIiVtnKyIrhFj
-----END CERTIFICATE-----
