Certificate:
    Data:
        Version: 3 (0x2)
        Serial Number:
            2f:2e:92:d1:4a:23:b9:da:59:f6:6e:1b:16:0a:fb:8c:e1:17:21:3e
        Signature Algorithm: sha1WithRSAEncryption
        Issuer: C=AU, O=Dodgy Brothers, CN=Dodgy CA
        Validity
            Not Before: Oct 10 22:57:34 2022 GMT
            Not After : Oct 10 22:57:34 2023 GMT
        Subject: C=AU, O=Dodgy Brothers, CN=Brother 1, CN=nextupdate_generalizedtime
        Subject Public Key Info:
            Public Key Algorithm: rsaEncryption
                Public-Key: (2048 bit)
                Modulus:
                    00:be:95:86:fa:71:4c:6a:ea:51:98:50:4b:99:a1:
                    2c:66:15:f3:60:f3:e1:ff:69:fb:ce:48:01:1d:fe:
                    e1:2c:38:b0:e3:bd:8f:4b:48:a7:7e:3a:c6:73:e3:
                    ab:bf:e1:da:6e:96:f5:fe:c3:e4:b4:a8:ad:bc:56:
                    34:d4:96:25:74:27:c3:10:db:35:10:25:1c:8e:4b:
                    81:9b:fb:42:04:7c:6f:3d:e2:38:6c:0e:e4:2e:8e:
                    2a:18:6d:30:cd:67:2a:23:6b:37:cf:05:9f:cc:b7:
                    59:58:7f:ba:c4:0a:3f:8c:a4:ad:cb:98:9c:c0:f2:
                    8f:69:67:0f:c1:4e:33:cf:fc:85:5e:bb:5e:cf:93:
                    b0:cf:d9:f4:52:79:87:b1:f8:4d:15:68:65:d5:b7:
                    19:08:63:7f:5e:b1:34:ad:05:8f:5a:f0:e4:e1:8f:
                    25:f2:5c:5c:61:95:b0:56:2d:31:2b:08:65:79:e5:
                    b1:3b:9d:3e:b9:52:4b:ac:5d:c4:58:66:85:8d:81:
                    b3:04:28:f4:3f:2f:ac:92:01:62:d5:fd:8e:0b:da:
                    02:0c:7a:c7:6e:09:1c:ac:1c:b2:4c:d7:54:b8:26:
                    33:b2:5f:14:f3:b1:f9:3d:62:4d:40:99:6b:b6:e7:
                    89:58:97:d6:d4:4d:ea:4b:68:52:f3:3c:a8:b1:35:
                    88:db
                Exponent: 65537 (0x10001)
        X509v3 extensions:
            X509v3 Subject Key Identifier: 
                A1:DF:33:C3:CF:3E:53:41:A7:68:44:CC:AA:19:E1:84:C9:0D:BC:C6
            X509v3 Authority Key Identifier: 
                keyid:B4:11:33:F1:D7:E2:5E:F7:53:9E:20:22:10:4F:86:06:BF:1F:C9:5E
                DirName:/C=AU/O=Dodgy Brothers/CN=Dodgy CA
                serial:54:58:39:15:FE:DC:8B:D1:43:3E:FE:0D:20:57:05:68:CF:78:BB:5C
            X509v3 Basic Constraints: critical
                CA:TRUE, pathlen:1
            X509v3 Key Usage: 
                Certificate Sign, CRL Sign
            X509v3 Issuer Alternative Name: 
                <EMPTY>

    Signature Algorithm: sha1WithRSAEncryption
    Signature Value:
        34:f9:dc:db:02:78:ec:2d:a8:ac:5f:37:81:9f:3c:a8:05:06:
        06:5f:61:d2:1b:3a:10:d4:51:4d:1c:59:84:d6:85:47:04:1b:
        1f:5d:16:94:84:bf:a8:42:e9:a1:6c:93:27:e1:84:70:54:d2:
        8d:d2:34:b9:d4:87:d4:d5:b9:65:02:5f:b4:23:de:d5:e7:25:
        c6:61:0b:a2:2a:51:f7:43:c8:6d:64:f4:c7:59:fa:b0:be:d1:
        e4:d0:ed:d4:46:0b:c8:f7:16:97:09:c4:cd:be:16:61:6b:90:
        66:eb:b5:a0:ba:91:b2:5e:89:7f:ab:d5:2a:ad:e3:46:11:03:
        e3:a4:3a:34:78:ee:05:94:f6:a0:66:dc:57:7e:45:12:2e:36:
        56:03:96:9a:23:3d:0f:8b:ad:e4:2c:4c:84:df:eb:22:42:2f:
        88:91:e6:4a:60:06:27:72:09:58:20:78:3a:94:0c:47:55:26:
        04:5e:fe:86:7a:79:1d:8c:64:ca:0a:6d:67:2b:40:ed:0d:de:
        13:74:46:59:55:e4:5a:7b:60:8a:64:95:54:b7:63:7c:b2:95:
        cc:55:3b:4e:6d:e6:65:63:5d:fe:e2:f9:5c:d4:3c:25:3c:f5:
        fa:11:66:6e:f6:83:e7:4b:95:e7:32:48:1e:33:ed:2f:77:e9:
        28:25:cd:aa
-----BEGIN CERTIFICATE-----
MIID6zCCAtOgAwIBAgIULy6S0UojudpZ9m4bFgr7jOEXIT4wDQYJKoZIhvcNAQEF
BQAwOTELMAkGA1UEBhMCQVUxFzAVBgNVBAoMDkRvZGd5IEJyb3RoZXJzMREwDwYD
VQQDDAhEb2RneSBDQTAeFw0yMjEwMTAyMjU3MzRaFw0yMzEwMTAyMjU3MzRaMF8x
CzAJBgNVBAYTAkFVMRcwFQYDVQQKDA5Eb2RneSBCcm90aGVyczESMBAGA1UEAwwJ
QnJvdGhlciAxMSMwIQYDVQQDDBpuZXh0dXBkYXRlX2dlbmVyYWxpemVkdGltZTCC
ASIwDQYJKoZIhvcNAQEBBQADggEPADCCAQoCggEBAL6VhvpxTGrqUZhQS5mhLGYV
82Dz4f9p+85IAR3+4Sw4sOO9j0tIp346xnPjq7/h2m6W9f7D5LSorbxWNNSWJXQn
wxDbNRAlHI5LgZv7QgR8bz3iOGwO5C6OKhhtMM1nKiNrN88Fn8y3WVh/usQKP4yk
rcuYnMDyj2lnD8FOM8/8hV67Xs+TsM/Z9FJ5h7H4TRVoZdW3GQhjf16xNK0Fj1rw
5OGPJfJcXGGVsFYtMSsIZXnlsTudPrlSS6xdxFhmhY2BswQo9D8vrJIBYtX9jgva
Agx6x24JHKwcskzXVLgmM7JfFPOx+T1iTUCZa7bniViX1tRN6ktoUvM8qLE1iNsC
AwEAAaOBxDCBwTAdBgNVHQ4EFgQUod8zw88+U0GnaETMqhnhhMkNvMYwdAYDVR0j
BG0wa4AUtBEz8dfiXvdTniAiEE+GBr8fyV6hPaQ7MDkxCzAJBgNVBAYTAkFVMRcw
FQYDVQQKDA5Eb2RneSBCcm90aGVyczERMA8GA1UEAwwIRG9kZ3kgQ0GCFFRYORX+
3IvRQz7+DSBXBWjPeLtcMBIGA1UdEwEB/wQIMAYBAf8CAQEwCwYDVR0PBAQDAgEG
MAkGA1UdEgQCMAAwDQYJKoZIhvcNAQEFBQADggEBADT53NsCeOwtqKxfN4GfPKgF
BgZfYdIbOhDUUU0cWYTWhUcEGx9dFpSEv6hC6aFskyfhhHBU0o3SNLnUh9TVuWUC
X7Qj3tXnJcZhC6IqUfdDyG1k9MdZ+rC+0eTQ7dRGC8j3FpcJxM2+FmFrkGbrtaC6
kbJeiX+r1Sqt40YRA+OkOjR47gWU9qBm3Fd+RRIuNlYDlpojPQ+LreQsTITf6yJC
L4iR5kpgBidyCVggeDqUDEdVJgRe/oZ6eR2MZMoKbWcrQO0N3hN0RllV5Fp7YIpk
lVS3Y3yylcxVO05t5mVjXf7i+VzUPCU89foRZm72g+dLlecySB4z7S936Sglzao=
-----END CERTIFICATE-----
