Certificate:
    Data:
        Version: 3 (0x2)
        Serial Number:
            2f:2e:92:d1:4a:23:b9:da:59:f6:6e:1b:16:0a:fb:8c:e1:17:21:3d
        Signature Algorithm: sha1WithRSAEncryption
        Issuer: C=AU, O=Dodgy Brothers, CN=Dodgy CA
        Validity
            Not Before: Oct 10 22:57:34 2022 GMT
            Not After : Oct 10 22:57:34 2023 GMT
        Subject: C=AU, O=Dodgy Brothers, CN=Brother 1, CN=nextupdate_utctime
        Subject Public Key Info:
            Public Key Algorithm: rsaEncryption
                Public-Key: (2048 bit)
                Modulus:
                    00:be:95:86:fa:71:4c:6a:ea:51:98:50:4b:99:a1:
                    2c:66:15:f3:60:f3:e1:ff:69:fb:ce:48:01:1d:fe:
                    e1:2c:38:b0:e3:bd:8f:4b:48:a7:7e:3a:c6:73:e3:
                    ab:bf:e1:da:6e:96:f5:fe:c3:e4:b4:a8:ad:bc:56:
                    34:d4:96:25:74:27:c3:10:db:35:10:25:1c:8e:4b:
                    81:9b:fb:42:04:7c:6f:3d:e2:38:6c:0e:e4:2e:8e:
                    2a:18:6d:30:cd:67:2a:23:6b:37:cf:05:9f:cc:b7:
                    59:58:7f:ba:c4:0a:3f:8c:a4:ad:cb:98:9c:c0:f2:
                    8f:69:67:0f:c1:4e:33:cf:fc:85:5e:bb:5e:cf:93:
                    b0:cf:d9:f4:52:79:87:b1:f8:4d:15:68:65:d5:b7:
                    19:08:63:7f:5e:b1:34:ad:05:8f:5a:f0:e4:e1:8f:
                    25:f2:5c:5c:61:95:b0:56:2d:31:2b:08:65:79:e5:
                    b1:3b:9d:3e:b9:52:4b:ac:5d:c4:58:66:85:8d:81:
                    b3:04:28:f4:3f:2f:ac:92:01:62:d5:fd:8e:0b:da:
                    02:0c:7a:c7:6e:09:1c:ac:1c:b2:4c:d7:54:b8:26:
                    33:b2:5f:14:f3:b1:f9:3d:62:4d:40:99:6b:b6:e7:
                    89:58:97:d6:d4:4d:ea:4b:68:52:f3:3c:a8:b1:35:
                    88:db
                Exponent: 65537 (0x10001)
        X509v3 extensions:
            X509v3 Subject Key Identifier: 
                A1:DF:33:C3:CF:3E:53:41:A7:68:44:CC:AA:19:E1:84:C9:0D:BC:C6
            X509v3 Authority Key Identifier: 
                keyid:B4:11:33:F1:D7:E2:5E:F7:53:9E:20:22:10:4F:86:06:BF:1F:C9:5E
                DirName:/C=AU/O=Dodgy Brothers/CN=Dodgy CA
                serial:54:58:39:15:FE:DC:8B:D1:43:3E:FE:0D:20:57:05:68:CF:78:BB:5C
            X509v3 Basic Constraints: critical
                CA:TRUE, pathlen:1
            X509v3 Key Usage: 
                Certificate Sign, CRL Sign
            X509v3 Issuer Alternative Name: 
                <EMPTY>

    Signature Algorithm: sha1WithRSAEncryption
    Signature Value:
        04:f5:a9:d0:34:b5:f9:6d:86:da:b8:16:f0:57:6e:7b:d3:f2:
        9d:18:99:9f:f1:47:8e:bd:54:7d:b0:0e:3e:d6:ff:9a:d4:50:
        6e:03:22:66:9a:8a:90:1d:34:29:58:be:3b:24:cb:9e:4f:90:
        56:86:79:9b:fc:a2:2c:db:e7:5c:30:e0:06:52:00:ca:d7:25:
        f4:3e:6e:3a:5b:c3:c5:c0:aa:c4:db:95:34:20:8a:0a:0e:20:
        60:b1:78:c6:9f:c6:dc:08:42:5d:3b:ab:5f:92:5b:f8:3d:57:
        6b:19:a2:24:d6:7e:71:f6:97:22:3c:7d:45:c3:03:a6:f2:d2:
        d1:ae:3c:91:5a:df:6b:6f:d8:05:04:91:1a:65:3d:5d:6f:15:
        d2:80:34:fa:2a:39:9d:8e:ed:8b:56:72:16:78:25:7c:29:49:
        bc:47:2e:6c:62:9f:1c:6f:78:96:83:e1:5e:f2:98:a2:52:58:
        3e:45:fc:33:48:db:bb:00:c3:4b:ac:9c:9b:fc:67:98:aa:45:
        65:01:f9:3f:14:fb:32:7e:64:d6:c7:10:15:48:e3:96:bd:e9:
        b6:9e:c5:87:a9:8d:c3:5d:c4:3b:de:f8:1f:6e:a1:fe:27:5a:
        f5:f0:91:01:dc:c2:f5:69:9d:d8:7a:99:14:dc:15:76:bb:15:
        c5:c7:b8:67
-----BEGIN CERTIFICATE-----
MIID4zCCAsugAwIBAgIULy6S0UojudpZ9m4bFgr7jOEXIT0wDQYJKoZIhvcNAQEF
BQAwOTELMAkGA1UEBhMCQVUxFzAVBgNVBAoMDkRvZGd5IEJyb3RoZXJzMREwDwYD
VQQDDAhEb2RneSBDQTAeFw0yMjEwMTAyMjU3MzRaFw0yMzEwMTAyMjU3MzRaMFcx
CzAJBgNVBAYTAkFVMRcwFQYDVQQKDA5Eb2RneSBCcm90aGVyczESMBAGA1UEAwwJ
QnJvdGhlciAxMRswGQYDVQQDDBJuZXh0dXBkYXRlX3V0Y3RpbWUwggEiMA0GCSqG
SIb3DQEBAQUAA4IBDwAwggEKAoIBAQC+lYb6cUxq6lGYUEuZoSxmFfNg8+H/afvO
SAEd/uEsOLDjvY9LSKd+OsZz46u/4dpulvX+w+S0qK28VjTUliV0J8MQ2zUQJRyO
S4Gb+0IEfG894jhsDuQujioYbTDNZyojazfPBZ/Mt1lYf7rECj+MpK3LmJzA8o9p
Zw/BTjPP/IVeu17Pk7DP2fRSeYex+E0VaGXVtxkIY39esTStBY9a8OThjyXyXFxh
lbBWLTErCGV55bE7nT65UkusXcRYZoWNgbMEKPQ/L6ySAWLV/Y4L2gIMesduCRys
HLJM11S4JjOyXxTzsfk9Yk1AmWu254lYl9bUTepLaFLzPKixNYjbAgMBAAGjgcQw
gcEwHQYDVR0OBBYEFKHfM8PPPlNBp2hEzKoZ4YTJDbzGMHQGA1UdIwRtMGuAFLQR
M/HX4l73U54gIhBPhga/H8leoT2kOzA5MQswCQYDVQQGEwJBVTEXMBUGA1UECgwO
RG9kZ3kgQnJvdGhlcnMxETAPBgNVBAMMCERvZGd5IENBghRUWDkV/tyL0UM+/g0g
VwVoz3i7XDASBgNVHRMBAf8ECDAGAQH/AgEBMAsGA1UdDwQEAwIBBjAJBgNVHRIE
AjAAMA0GCSqGSIb3DQEBBQUAA4IBAQAE9anQNLX5bYbauBbwV2570/KdGJmf8UeO
vVR9sA4+1v+a1FBuAyJmmoqQHTQpWL47JMueT5BWhnmb/KIs2+dcMOAGUgDK1yX0
Pm46W8PFwKrE25U0IIoKDiBgsXjGn8bcCEJdO6tfklv4PVdrGaIk1n5x9pciPH1F
wwOm8tLRrjyRWt9rb9gFBJEaZT1dbxXSgDT6Kjmdju2LVnIWeCV8KUm8Ry5sYp8c
b3iWg+Fe8piiUlg+RfwzSNu7AMNLrJyb/GeYqkVlAfk/FPsyfmTWxxAVSOOWvem2
nsWHqY3DXcQ73vgfbqH+J1r18JEB3ML1aZ3YepkU3BV2uxXFx7hn
-----END CERTIFICATE-----
