Certificate:
    Data:
        Version: 3 (0x2)
        Serial Number:
            2f:2e:92:d1:4a:23:b9:da:59:f6:6e:1b:16:0a:fb:8c:e1:17:21:3b
        Signature Algorithm: sha1WithRSAEncryption
        Issuer: C=AU, O=Dodgy Brothers, CN=Dodgy CA
        Validity
            Not Before: Oct 10 22:57:34 2022 GMT
            Not After : Oct 10 22:57:34 2023 GMT
        Subject: C=AU, O=Dodgy Brothers, CN=Brother 1, CN=lastupdate_generalizedtime
        Subject Public Key Info:
            Public Key Algorithm: rsaEncryption
                Public-Key: (2048 bit)
                Modulus:
                    00:be:95:86:fa:71:4c:6a:ea:51:98:50:4b:99:a1:
                    2c:66:15:f3:60:f3:e1:ff:69:fb:ce:48:01:1d:fe:
                    e1:2c:38:b0:e3:bd:8f:4b:48:a7:7e:3a:c6:73:e3:
                    ab:bf:e1:da:6e:96:f5:fe:c3:e4:b4:a8:ad:bc:56:
                    34:d4:96:25:74:27:c3:10:db:35:10:25:1c:8e:4b:
                    81:9b:fb:42:04:7c:6f:3d:e2:38:6c:0e:e4:2e:8e:
                    2a:18:6d:30:cd:67:2a:23:6b:37:cf:05:9f:cc:b7:
                    59:58:7f:ba:c4:0a:3f:8c:a4:ad:cb:98:9c:c0:f2:
                    8f:69:67:0f:c1:4e:33:cf:fc:85:5e:bb:5e:cf:93:
                    b0:cf:d9:f4:52:79:87:b1:f8:4d:15:68:65:d5:b7:
                    19:08:63:7f:5e:b1:34:ad:05:8f:5a:f0:e4:e1:8f:
                    25:f2:5c:5c:61:95:b0:56:2d:31:2b:08:65:79:e5:
                    b1:3b:9d:3e:b9:52:4b:ac:5d:c4:58:66:85:8d:81:
                    b3:04:28:f4:3f:2f:ac:92:01:62:d5:fd:8e:0b:da:
                    02:0c:7a:c7:6e:09:1c:ac:1c:b2:4c:d7:54:b8:26:
                    33:b2:5f:14:f3:b1:f9:3d:62:4d:40:99:6b:b6:e7:
                    89:58:97:d6:d4:4d:ea:4b:68:52:f3:3c:a8:b1:35:
                    88:db
                Exponent: 65537 (0x10001)
        X509v3 extensions:
            X509v3 Subject Key Identifier: 
                A1:DF:33:C3:CF:3E:53:41:A7:68:44:CC:AA:19:E1:84:C9:0D:BC:C6
            X509v3 Authority Key Identifier: 
                keyid:B4:11:33:F1:D7:E2:5E:F7:53:9E:20:22:10:4F:86:06:BF:1F:C9:5E
                DirName:/C=AU/O=Dodgy Brothers/CN=Dodgy CA
                serial:54:58:39:15:FE:DC:8B:D1:43:3E:FE:0D:20:57:05:68:CF:78:BB:5C
            X509v3 Basic Constraints: critical
                CA:TRUE, pathlen:1
            X509v3 Key Usage: 
                Certificate Sign, CRL Sign
            X509v3 Issuer Alternative Name: 
                <EMPTY>

    Signature Algorithm: sha1WithRSAEncryption
    Signature Value:
        6b:e6:6a:97:82:05:db:e3:8c:b8:e6:13:1b:dc:a6:ca:f1:6b:
        4e:fa:c0:a1:d4:04:12:a3:ef:49:fc:68:40:e6:fc:ae:27:f6:
        68:4f:40:fb:17:e3:4b:14:c1:39:26:19:21:ff:1d:a2:05:a5:
        3a:b3:80:26:bf:2e:dc:a7:00:8d:1b:30:b2:e6:bf:85:7d:f3:
        e9:9e:c6:ef:b5:3b:f7:16:f0:49:54:0c:8c:30:70:f1:43:75:
        a5:87:e1:21:99:51:a9:3b:bb:15:b6:24:47:ee:14:07:de:da:
        c3:55:63:20:31:6e:18:e6:7c:92:46:8f:29:72:30:a0:28:5d:
        ea:f9:88:f8:af:41:00:ce:e0:4f:3b:c5:f4:3b:d6:27:26:f5:
        2a:70:58:83:00:2f:80:a9:10:3f:0f:13:7d:69:55:ae:56:b6:
        99:45:65:04:1c:00:00:bc:59:49:ad:ed:6b:6c:28:c5:00:cf:
        bb:71:a5:e8:0a:36:b9:6d:06:bb:ba:85:02:12:53:4f:22:98:
        59:09:a5:a0:65:f7:91:1e:ba:39:34:e7:1f:b8:3c:a6:7d:47:
        15:54:51:c6:7d:94:ca:fe:70:1f:23:1e:e3:74:8f:25:f0:56:
        df:62:8f:86:f5:6f:cd:f6:90:0a:8e:df:1e:8f:60:86:c6:e4:
        b9:d7:06:08
-----BEGIN CERTIFICATE-----
MIID6zCCAtOgAwIBAgIULy6S0UojudpZ9m4bFgr7jOEXITswDQYJKoZIhvcNAQEF
BQAwOTELMAkGA1UEBhMCQVUxFzAVBgNVBAoMDkRvZGd5IEJyb3RoZXJzMREwDwYD
VQQDDAhEb2RneSBDQTAeFw0yMjEwMTAyMjU3MzRaFw0yMzEwMTAyMjU3MzRaMF8x
CzAJBgNVBAYTAkFVMRcwFQYDVQQKDA5Eb2RneSBCcm90aGVyczESMBAGA1UEAwwJ
QnJvdGhlciAxMSMwIQYDVQQDDBpsYXN0dXBkYXRlX2dlbmVyYWxpemVkdGltZTCC
ASIwDQYJKoZIhvcNAQEBBQADggEPADCCAQoCggEBAL6VhvpxTGrqUZhQS5mhLGYV
82Dz4f9p+85IAR3+4Sw4sOO9j0tIp346xnPjq7/h2m6W9f7D5LSorbxWNNSWJXQn
wxDbNRAlHI5LgZv7QgR8bz3iOGwO5C6OKhhtMM1nKiNrN88Fn8y3WVh/usQKP4yk
rcuYnMDyj2lnD8FOM8/8hV67Xs+TsM/Z9FJ5h7H4TRVoZdW3GQhjf16xNK0Fj1rw
5OGPJfJcXGGVsFYtMSsIZXnlsTudPrlSS6xdxFhmhY2BswQo9D8vrJIBYtX9jgva
Agx6x24JHKwcskzXVLgmM7JfFPOx+T1iTUCZa7bniViX1tRN6ktoUvM8qLE1iNsC
AwEAAaOBxDCBwTAdBgNVHQ4EFgQUod8zw88+U0GnaETMqhnhhMkNvMYwdAYDVR0j
BG0wa4AUtBEz8dfiXvdTniAiEE+GBr8fyV6hPaQ7MDkxCzAJBgNVBAYTAkFVMRcw
FQYDVQQKDA5Eb2RneSBCcm90aGVyczERMA8GA1UEAwwIRG9kZ3kgQ0GCFFRYORX+
3IvRQz7+DSBXBWjPeLtcMBIGA1UdEwEB/wQIMAYBAf8CAQEwCwYDVR0PBAQDAgEG
MAkGA1UdEgQCMAAwDQYJKoZIhvcNAQEFBQADggEBAGvmapeCBdvjjLjmExvcpsrx
a076wKHUBBKj70n8aEDm/K4n9mhPQPsX40sUwTkmGSH/HaIFpTqzgCa/LtynAI0b
MLLmv4V98+mexu+1O/cW8ElUDIwwcPFDdaWH4SGZUak7uxW2JEfuFAfe2sNVYyAx
bhjmfJJGjylyMKAoXer5iPivQQDO4E87xfQ71icm9SpwWIMAL4CpED8PE31pVa5W
tplFZQQcAAC8WUmt7WtsKMUAz7txpegKNrltBru6hQISU08imFkJpaBl95Eeujk0
5x+4PKZ9RxVUUcZ9lMr+cB8jHuN0jyXwVt9ij4b1b832kAqO3x6PYIbG5LnXBgg=
-----END CERTIFICATE-----
