Certificate:
    Data:
        Version: 3 (0x2)
        Serial Number:
            54:58:39:15:fe:dc:8b:d1:43:3e:fe:0d:20:57:05:68:cf:78:bb:5c
        Signature Algorithm: sha1WithRSAEncryption
        Issuer: C=AU, O=Dodgy Brothers, CN=Dodgy CA
        Validity
            Not Before: Oct 10 22:57:33 2022 GMT
            Not After : Oct  9 22:57:33 2025 GMT
        Subject: C=AU, O=Dodgy Brothers, CN=Dodgy CA
        Subject Public Key Info:
            Public Key Algorithm: rsaEncryption
                Public-Key: (2048 bit)
                Modulus:
                    00:96:9d:a4:3d:00:4b:1c:5f:c6:cb:dd:8f:d2:31:
                    b2:88:15:cc:c4:86:2c:5c:e2:69:8b:84:f4:a7:a3:
                    53:df:91:e3:bf:51:89:fb:f0:7c:10:0d:3b:ad:ac:
                    35:62:75:f5:7f:ff:f4:6e:54:8f:05:a6:92:23:b3:
                    9f:59:39:d0:39:18:b0:10:40:de:62:73:8a:4e:b0:
                    8e:df:dc:e7:c9:41:22:54:84:80:08:29:bc:35:3c:
                    86:df:30:de:dd:b4:24:ff:7e:62:a5:c0:7a:e8:2a:
                    16:3f:d6:97:da:c5:42:db:2f:69:64:91:cb:08:d7:
                    56:5a:79:7f:1b:84:41:e9:4d:9d:77:09:10:a8:6c:
                    29:33:44:c6:c0:54:65:e6:e8:e3:f2:75:05:6a:64:
                    95:6c:c0:f4:fd:25:61:6e:48:36:f0:c0:03:07:05:
                    d6:7c:e5:11:fd:18:e8:4a:2d:d3:72:0c:37:28:36:
                    31:31:38:85:e8:71:8d:d8:02:49:c8:bc:19:89:c5:
                    8a:b1:3f:a2:35:ea:aa:90:1c:64:68:7b:af:67:6a:
                    5a:06:54:0f:50:e1:f9:b4:f6:be:3a:d4:ce:3f:1e:
                    4c:7d:c6:77:32:3e:a2:58:ed:db:dd:74:d8:92:14:
                    6a:a8:f7:cb:34:58:91:a8:7c:14:b1:7d:08:b3:4d:
                    b1:47
                Exponent: 65537 (0x10001)
        X509v3 extensions:
            X509v3 Subject Key Identifier: 
                B4:11:33:F1:D7:E2:5E:F7:53:9E:20:22:10:4F:86:06:BF:1F:C9:5E
            X509v3 Authority Key Identifier: 
                keyid:B4:11:33:F1:D7:E2:5E:F7:53:9E:20:22:10:4F:86:06:BF:1F:C9:5E
                DirName:/C=AU/O=Dodgy Brothers/CN=Dodgy CA
                serial:54:58:39:15:FE:DC:8B:D1:43:3E:FE:0D:20:57:05:68:CF:78:BB:5C
            X509v3 Basic Constraints: critical
                CA:TRUE, pathlen:1
            X509v3 Key Usage: 
                Certificate Sign, CRL Sign
            X509v3 Issuer Alternative Name: 
                <EMPTY>

    Signature Algorithm: sha1WithRSAEncryption
    Signature Value:
        87:56:13:67:4e:82:89:b4:da:68:75:b0:0a:93:c2:91:c9:f3:
        c9:df:25:25:08:c8:98:0b:7b:99:52:44:36:5b:8e:6e:0e:f1:
        bb:5a:f0:74:d4:c8:c1:f6:28:8a:ea:0c:9c:b7:5c:fe:e6:e8:
        1b:cf:00:7b:6d:0b:ba:08:aa:79:ad:bd:d0:87:be:0a:e2:35:
        01:86:a9:28:4a:a3:89:50:cb:68:aa:46:b0:5d:c4:c1:5f:ec:
        51:48:67:85:ee:66:dc:95:8d:9a:12:8b:52:9f:0e:0f:97:f8:
        f2:be:be:dd:ee:4e:b8:06:bb:2f:04:51:ac:00:ae:71:3c:71:
        fe:f6:83:21:d0:6f:b4:34:31:27:98:f2:b5:21:d8:34:7f:59:
        12:52:9c:79:d4:9d:b3:c1:1c:a7:a6:35:15:98:ae:39:3a:e6:
        25:8b:cc:a5:37:42:da:bf:89:b6:49:c7:57:c7:e7:ec:01:f1:
        4f:51:9b:dc:9d:46:3a:5e:88:c6:92:58:6f:5f:8f:65:88:62:
        3b:0c:f3:6b:b0:42:06:e3:36:db:fc:30:d2:b2:61:db:fe:1d:
        45:9d:1a:a1:c7:87:aa:a2:c5:ea:f7:b8:0c:86:50:23:61:3a:
        2d:98:6b:c8:dc:03:c2:b2:f0:d1:f1:83:09:1f:0e:44:98:d4:
        63:9a:27:0c
-----BEGIN CERTIFICATE-----
MIIDxTCCAq2gAwIBAgIUVFg5Ff7ci9FDPv4NIFcFaM94u1wwDQYJKoZIhvcNAQEF
BQAwOTELMAkGA1UEBhMCQVUxFzAVBgNVBAoMDkRvZGd5IEJyb3RoZXJzMREwDwYD
VQQDDAhEb2RneSBDQTAeFw0yMjEwMTAyMjU3MzNaFw0yNTEwMDkyMjU3MzNaMDkx
CzAJBgNVBAYTAkFVMRcwFQYDVQQKDA5Eb2RneSBCcm90aGVyczERMA8GA1UEAwwI
RG9kZ3kgQ0EwggEiMA0GCSqGSIb3DQEBAQUAA4IBDwAwggEKAoIBAQCWnaQ9AEsc
X8bL3Y/SMbKIFczEhixc4mmLhPSno1PfkeO/UYn78HwQDTutrDVidfV///RuVI8F
ppIjs59ZOdA5GLAQQN5ic4pOsI7f3OfJQSJUhIAIKbw1PIbfMN7dtCT/fmKlwHro
KhY/1pfaxULbL2lkkcsI11ZaeX8bhEHpTZ13CRCobCkzRMbAVGXm6OPydQVqZJVs
wPT9JWFuSDbwwAMHBdZ85RH9GOhKLdNyDDcoNjExOIXocY3YAknIvBmJxYqxP6I1
6qqQHGRoe69naloGVA9Q4fm09r461M4/Hkx9xncyPqJY7dvddNiSFGqo98s0WJGo
fBSxfQizTbFHAgMBAAGjgcQwgcEwHQYDVR0OBBYEFLQRM/HX4l73U54gIhBPhga/
H8leMHQGA1UdIwRtMGuAFLQRM/HX4l73U54gIhBPhga/H8leoT2kOzA5MQswCQYD
VQQGEwJBVTEXMBUGA1UECgwORG9kZ3kgQnJvdGhlcnMxETAPBgNVBAMMCERvZGd5
IENBghRUWDkV/tyL0UM+/g0gVwVoz3i7XDASBgNVHRMBAf8ECDAGAQH/AgEBMAsG
A1UdDwQEAwIBBjAJBgNVHRIEAjAAMA0GCSqGSIb3DQEBBQUAA4IBAQCHVhNnToKJ
tNpodbAKk8KRyfPJ3yUlCMiYC3uZUkQ2W45uDvG7WvB01MjB9iiK6gyct1z+5ugb
zwB7bQu6CKp5rb3Qh74K4jUBhqkoSqOJUMtoqkawXcTBX+xRSGeF7mbclY2aEotS
nw4Pl/jyvr7d7k64BrsvBFGsAK5xPHH+9oMh0G+0NDEnmPK1Idg0f1kSUpx51J2z
wRynpjUVmK45OuYli8ylN0Lav4m2ScdXx+fsAfFPUZvcnUY6XojGklhvX49liGI7
DPNrsEIG4zbb/DDSsmHb/h1FnRqhx4eqosXq97gMhlAjYTotmGvI3APCsvDR8YMJ
Hw5EmNRjmicM
-----END CERTIFICATE-----
