Certificate:
    Data:
        Version: 3 (0x2)
        Serial Number:
            2f:2e:92:d1:4a:23:b9:da:59:f6:6e:1b:16:0a:fb:8c:e1:17:21:3a
        Signature Algorithm: sha1WithRSAEncryption
        Issuer: C=AU, O=Dodgy Brothers, CN=Dodgy CA
        Validity
            Not Before: Oct 10 22:57:34 2022 GMT
            Not After : Oct 10 22:57:34 2023 GMT
        Subject: C=AU, O=Dodgy Brothers, CN=Brother 1, CN=lastupdate_utctime
        Subject Public Key Info:
            Public Key Algorithm: rsaEncryption
                Public-Key: (2048 bit)
                Modulus:
                    00:be:95:86:fa:71:4c:6a:ea:51:98:50:4b:99:a1:
                    2c:66:15:f3:60:f3:e1:ff:69:fb:ce:48:01:1d:fe:
                    e1:2c:38:b0:e3:bd:8f:4b:48:a7:7e:3a:c6:73:e3:
                    ab:bf:e1:da:6e:96:f5:fe:c3:e4:b4:a8:ad:bc:56:
                    34:d4:96:25:74:27:c3:10:db:35:10:25:1c:8e:4b:
                    81:9b:fb:42:04:7c:6f:3d:e2:38:6c:0e:e4:2e:8e:
                    2a:18:6d:30:cd:67:2a:23:6b:37:cf:05:9f:cc:b7:
                    59:58:7f:ba:c4:0a:3f:8c:a4:ad:cb:98:9c:c0:f2:
                    8f:69:67:0f:c1:4e:33:cf:fc:85:5e:bb:5e:cf:93:
                    b0:cf:d9:f4:52:79:87:b1:f8:4d:15:68:65:d5:b7:
                    19:08:63:7f:5e:b1:34:ad:05:8f:5a:f0:e4:e1:8f:
                    25:f2:5c:5c:61:95:b0:56:2d:31:2b:08:65:79:e5:
                    b1:3b:9d:3e:b9:52:4b:ac:5d:c4:58:66:85:8d:81:
                    b3:04:28:f4:3f:2f:ac:92:01:62:d5:fd:8e:0b:da:
                    02:0c:7a:c7:6e:09:1c:ac:1c:b2:4c:d7:54:b8:26:
                    33:b2:5f:14:f3:b1:f9:3d:62:4d:40:99:6b:b6:e7:
                    89:58:97:d6:d4:4d:ea:4b:68:52:f3:3c:a8:b1:35:
                    88:db
                Exponent: 65537 (0x10001)
        X509v3 extensions:
            X509v3 Subject Key Identifier: 
                A1:DF:33:C3:CF:3E:53:41:A7:68:44:CC:AA:19:E1:84:C9:0D:BC:C6
            X509v3 Authority Key Identifier: 
                keyid:B4:11:33:F1:D7:E2:5E:F7:53:9E:20:22:10:4F:86:06:BF:1F:C9:5E
                DirName:/C=AU/O=Dodgy Brothers/CN=Dodgy CA
                serial:54:58:39:15:FE:DC:8B:D1:43:3E:FE:0D:20:57:05:68:CF:78:BB:5C
            X509v3 Basic Constraints: critical
                CA:TRUE, pathlen:1
            X509v3 Key Usage: 
                Certificate Sign, CRL Sign
            X509v3 Issuer Alternative Name: 
                <EMPTY>

    Signature Algorithm: sha1WithRSAEncryption
    Signature Value:
        41:c9:68:91:17:af:84:17:3b:19:9b:3b:78:0f:49:6a:2c:10:
        f0:80:c1:9d:b2:2e:e1:19:60:9f:b9:d5:55:0d:79:ef:7b:c3:
        0d:63:25:08:65:06:1d:53:ab:6e:f2:ec:ca:48:05:43:7e:e9:
        2d:c4:48:b2:95:53:e0:d8:c4:0f:9b:60:23:49:d9:68:68:df:
        fe:2c:3e:99:85:3d:af:35:3b:89:ca:35:71:9c:55:aa:dc:b0:
        95:18:0c:e2:b2:1d:7e:9c:7e:9a:2e:d8:52:d4:4e:73:74:6b:
        a6:09:e7:fc:a3:8b:35:a6:b5:96:c5:cd:5f:96:9d:0d:71:1f:
        d3:a1:cd:86:a3:f5:54:e3:d3:19:08:d9:93:e6:34:0c:58:ee:
        16:5c:86:c9:24:52:38:4e:4c:25:7a:dd:5f:15:d7:83:87:2b:
        a5:a5:e8:25:33:f6:13:0f:85:eb:a0:00:01:86:e4:ca:b8:34:
        87:5f:e7:19:25:37:c4:5d:fb:60:99:e4:b9:4f:45:5e:5d:f4:
        a7:62:4e:d8:4a:09:09:d8:3e:58:e3:e1:69:6b:cc:63:10:4b:
        f1:5a:94:31:cf:a9:2f:b0:7f:83:7b:a7:87:e3:02:a4:37:14:
        d5:63:cc:41:0c:c9:e7:cb:74:76:0b:1a:45:a0:34:10:b9:e6:
        bb:3b:a3:c9
-----BEGIN CERTIFICATE-----
MIID4zCCAsugAwIBAgIULy6S0UojudpZ9m4bFgr7jOEXITowDQYJKoZIhvcNAQEF
BQAwOTELMAkGA1UEBhMCQVUxFzAVBgNVBAoMDkRvZGd5IEJyb3RoZXJzMREwDwYD
VQQDDAhEb2RneSBDQTAeFw0yMjEwMTAyMjU3MzRaFw0yMzEwMTAyMjU3MzRaMFcx
CzAJBgNVBAYTAkFVMRcwFQYDVQQKDA5Eb2RneSBCcm90aGVyczESMBAGA1UEAwwJ
QnJvdGhlciAxMRswGQYDVQQDDBJsYXN0dXBkYXRlX3V0Y3RpbWUwggEiMA0GCSqG
SIb3DQEBAQUAA4IBDwAwggEKAoIBAQC+lYb6cUxq6lGYUEuZoSxmFfNg8+H/afvO
SAEd/uEsOLDjvY9LSKd+OsZz46u/4dpulvX+w+S0qK28VjTUliV0J8MQ2zUQJRyO
S4Gb+0IEfG894jhsDuQujioYbTDNZyojazfPBZ/Mt1lYf7rECj+MpK3LmJzA8o9p
Zw/BTjPP/IVeu17Pk7DP2fRSeYex+E0VaGXVtxkIY39esTStBY9a8OThjyXyXFxh
lbBWLTErCGV55bE7nT65UkusXcRYZoWNgbMEKPQ/L6ySAWLV/Y4L2gIMesduCRys
HLJM11S4JjOyXxTzsfk9Yk1AmWu254lYl9bUTepLaFLzPKixNYjbAgMBAAGjgcQw
gcEwHQYDVR0OBBYEFKHfM8PPPlNBp2hEzKoZ4YTJDbzGMHQGA1UdIwRtMGuAFLQR
M/HX4l73U54gIhBPhga/H8leoT2kOzA5MQswCQYDVQQGEwJBVTEXMBUGA1UECgwO
RG9kZ3kgQnJvdGhlcnMxETAPBgNVBAMMCERvZGd5IENBghRUWDkV/tyL0UM+/g0g
VwVoz3i7XDASBgNVHRMBAf8ECDAGAQH/AgEBMAsGA1UdDwQEAwIBBjAJBgNVHRIE
AjAAMA0GCSqGSIb3DQEBBQUAA4IBAQBByWiRF6+EFzsZmzt4D0lqLBDwgMGdsi7h
GWCfudVVDXnve8MNYyUIZQYdU6tu8uzKSAVDfuktxEiylVPg2MQPm2AjSdloaN/+
LD6ZhT2vNTuJyjVxnFWq3LCVGAzish1+nH6aLthS1E5zdGumCef8o4s1prWWxc1f
lp0NcR/Toc2Go/VU49MZCNmT5jQMWO4WXIbJJFI4Tkwlet1fFdeDhyulpeglM/YT
D4XroAABhuTKuDSHX+cZJTfEXftgmeS5T0VeXfSnYk7YSgkJ2D5Y4+Fpa8xjEEvx
WpQxz6kvsH+De6eH4wKkNxTVY8xBDMnny3R2CxpFoDQQuea7O6PJ
-----END CERTIFICATE-----
