Certificate:
    Data:
        Version: 3 (0x2)
        Serial Number:
            2f:2e:92:d1:4a:23:b9:da:59:f6:6e:1b:16:0a:fb:8c:e1:17:21:3c
        Signature Algorithm: sha1WithRSAEncryption
        Issuer: C=AU, O=Dodgy Brothers, CN=Dodgy CA
        Validity
            Not Before: Oct 10 22:57:34 2022 GMT
            Not After : Oct 10 22:57:34 2023 GMT
        Subject: C=AU, O=Dodgy Brothers, CN=Brother 1, CN=nextupdate_invalid
        Subject Public Key Info:
            Public Key Algorithm: rsaEncryption
                Public-Key: (2048 bit)
                Modulus:
                    00:be:95:86:fa:71:4c:6a:ea:51:98:50:4b:99:a1:
                    2c:66:15:f3:60:f3:e1:ff:69:fb:ce:48:01:1d:fe:
                    e1:2c:38:b0:e3:bd:8f:4b:48:a7:7e:3a:c6:73:e3:
                    ab:bf:e1:da:6e:96:f5:fe:c3:e4:b4:a8:ad:bc:56:
                    34:d4:96:25:74:27:c3:10:db:35:10:25:1c:8e:4b:
                    81:9b:fb:42:04:7c:6f:3d:e2:38:6c:0e:e4:2e:8e:
                    2a:18:6d:30:cd:67:2a:23:6b:37:cf:05:9f:cc:b7:
                    59:58:7f:ba:c4:0a:3f:8c:a4:ad:cb:98:9c:c0:f2:
                    8f:69:67:0f:c1:4e:33:cf:fc:85:5e:bb:5e:cf:93:
                    b0:cf:d9:f4:52:79:87:b1:f8:4d:15:68:65:d5:b7:
                    19:08:63:7f:5e:b1:34:ad:05:8f:5a:f0:e4:e1:8f:
                    25:f2:5c:5c:61:95:b0:56:2d:31:2b:08:65:79:e5:
                    b1:3b:9d:3e:b9:52:4b:ac:5d:c4:58:66:85:8d:81:
                    b3:04:28:f4:3f:2f:ac:92:01:62:d5:fd:8e:0b:da:
                    02:0c:7a:c7:6e:09:1c:ac:1c:b2:4c:d7:54:b8:26:
                    33:b2:5f:14:f3:b1:f9:3d:62:4d:40:99:6b:b6:e7:
                    89:58:97:d6:d4:4d:ea:4b:68:52:f3:3c:a8:b1:35:
                    88:db
                Exponent: 65537 (0x10001)
        X509v3 extensions:
            X509v3 Subject Key Identifier: 
                A1:DF:33:C3:CF:3E:53:41:A7:68:44:CC:AA:19:E1:84:C9:0D:BC:C6
            X509v3 Authority Key Identifier: 
                keyid:B4:11:33:F1:D7:E2:5E:F7:53:9E:20:22:10:4F:86:06:BF:1F:C9:5E
                DirName:/C=AU/O=Dodgy Brothers/CN=Dodgy CA
                serial:54:58:39:15:FE:DC:8B:D1:43:3E:FE:0D:20:57:05:68:CF:78:BB:5C
            X509v3 Basic Constraints: critical
                CA:TRUE, pathlen:1
            X509v3 Key Usage: 
                Certificate Sign, CRL Sign
            X509v3 Issuer Alternative Name: 
                <EMPTY>

    Signature Algorithm: sha1WithRSAEncryption
    Signature Value:
        94:76:93:55:6b:61:26:a0:f2:99:27:e9:8c:f4:a3:f3:9e:47:
        4f:3d:dc:13:3a:d0:1a:b6:d4:fb:c0:92:28:d1:d1:63:d0:e4:
        10:1e:7c:37:a4:06:8f:64:2d:c5:06:f1:a2:dd:8a:02:bd:41:
        53:20:b5:fa:0c:09:71:d0:ad:1d:32:62:f0:58:b5:14:4f:a7:
        b0:0c:c8:e2:11:2b:33:02:76:b0:05:d0:16:4d:b3:f3:49:af:
        ec:54:28:fb:fa:92:8b:90:42:45:9e:50:c1:fa:d9:08:18:30:
        cd:6c:ab:82:90:8a:14:a9:cc:59:e6:49:b1:e5:77:ae:79:55:
        2a:b9:e5:f0:16:de:4c:51:6b:83:fd:a4:63:86:6b:e3:a8:81:
        cd:b9:30:42:70:b7:44:ca:43:33:ed:18:e0:90:f3:91:48:84:
        2f:4c:00:cd:30:db:54:d5:22:d8:57:45:a3:00:ac:2f:74:72:
        3e:fb:7e:b2:08:76:f4:36:01:c5:e0:06:99:95:3c:1e:d9:a8:
        c6:1f:7a:c2:fc:00:0e:18:a3:80:15:38:c6:31:9d:c1:a8:c2:
        c8:50:41:b3:c9:62:38:70:51:d0:23:6c:73:d8:19:00:f8:94:
        17:72:78:17:b7:80:11:45:d5:6b:e1:6d:67:e0:5a:a5:3f:8e:
        c7:9f:b3:9c
-----BEGIN CERTIFICATE-----
MIID4zCCAsugAwIBAgIULy6S0UojudpZ9m4bFgr7jOEXITwwDQYJKoZIhvcNAQEF
BQAwOTELMAkGA1UEBhMCQVUxFzAVBgNVBAoMDkRvZGd5IEJyb3RoZXJzMREwDwYD
VQQDDAhEb2RneSBDQTAeFw0yMjEwMTAyMjU3MzRaFw0yMzEwMTAyMjU3MzRaMFcx
CzAJBgNVBAYTAkFVMRcwFQYDVQQKDA5Eb2RneSBCcm90aGVyczESMBAGA1UEAwwJ
QnJvdGhlciAxMRswGQYDVQQDDBJuZXh0dXBkYXRlX2ludmFsaWQwggEiMA0GCSqG
SIb3DQEBAQUAA4IBDwAwggEKAoIBAQC+lYb6cUxq6lGYUEuZoSxmFfNg8+H/afvO
SAEd/uEsOLDjvY9LSKd+OsZz46u/4dpulvX+w+S0qK28VjTUliV0J8MQ2zUQJRyO
S4Gb+0IEfG894jhsDuQujioYbTDNZyojazfPBZ/Mt1lYf7rECj+MpK3LmJzA8o9p
Zw/BTjPP/IVeu17Pk7DP2fRSeYex+E0VaGXVtxkIY39esTStBY9a8OThjyXyXFxh
lbBWLTErCGV55bE7nT65UkusXcRYZoWNgbMEKPQ/L6ySAWLV/Y4L2gIMesduCRys
HLJM11S4JjOyXxTzsfk9Yk1AmWu254lYl9bUTepLaFLzPKixNYjbAgMBAAGjgcQw
gcEwHQYDVR0OBBYEFKHfM8PPPlNBp2hEzKoZ4YTJDbzGMHQGA1UdIwRtMGuAFLQR
M/HX4l73U54gIhBPhga/H8leoT2kOzA5MQswCQYDVQQGEwJBVTEXMBUGA1UECgwO
RG9kZ3kgQnJvdGhlcnMxETAPBgNVBAMMCERvZGd5IENBghRUWDkV/tyL0UM+/g0g
VwVoz3i7XDASBgNVHRMBAf8ECDAGAQH/AgEBMAsGA1UdDwQEAwIBBjAJBgNVHRIE
AjAAMA0GCSqGSIb3DQEBBQUAA4IBAQCUdpNVa2EmoPKZJ+mM9KPznkdPPdwTOtAa
ttT7wJIo0dFj0OQQHnw3pAaPZC3FBvGi3YoCvUFTILX6DAlx0K0dMmLwWLUUT6ew
DMjiESszAnawBdAWTbPzSa/sVCj7+pKLkEJFnlDB+tkIGDDNbKuCkIoUqcxZ5kmx
5XeueVUqueXwFt5MUWuD/aRjhmvjqIHNuTBCcLdEykMz7RjgkPORSIQvTADNMNtU
1SLYV0WjAKwvdHI++36yCHb0NgHF4AaZlTwe2ajGH3rC/AAOGKOAFTjGMZ3BqMLI
UEGzyWI4cFHQI2xz2BkA+JQXcngXt4ARRdVr4W1n4FqlP47Hn7Oc
-----END CERTIFICATE-----
